; Function Attrs: mustprogress uwtable
define dso_local noundef i64 @_ZNK4Luau22SubtypingReasoningHashclERKNS_18SubtypingReasoningE(ptr noundef nonnull readnone align 1 captures(none) dereferenceable(1) %0, ptr noundef nonnull align 8 dereferenceable(52) %1) local_unnamed_addr #4 align 2 {
  %3 = alloca %"struct.Luau::TypePath::PathHash", align 1
  %4 = alloca %"struct.Luau::TypePath::PathHash", align 1
  call void @llvm.lifetime.start.p0(i64 1, ptr nonnull %3) #29
  %5 = call noundef i64 @_ZNK4Luau8TypePath8PathHashclERKNS0_4PathE(ptr noundef nonnull align 1 dereferenceable(1) %3, ptr noundef nonnull align 8 dereferenceable(24) %1)
  call void @llvm.lifetime.start.p0(i64 1, ptr nonnull %4) #29
  %6 = getelementptr inbounds nuw i8, ptr %1, i64 24
  %7 = call noundef i64 @_ZNK4Luau8TypePath8PathHashclERKNS0_4PathE(ptr noundef nonnull align 1 dereferenceable(1) %4, ptr noundef nonnull align 8 dereferenceable(24) %6)
  %8 = getelementptr inbounds nuw i8, ptr %1, i64 48
  %9 = load i32, ptr %8, align 8, !tbaa !19
  %10 = sext i32 %9 to i64
  %11 = xor i64 %7, %10
  %12 = shl i64 %11, 1
  %13 = xor i64 %12, %5
  call void @llvm.lifetime.end.p0(i64 1, ptr nonnull %4) #29
  call void @llvm.lifetime.end.p0(i64 1, ptr nonnull %3) #29
  ret i64 %13
}